target datalayout = "e-m:e-p270:32:32-p271:32:32-p272:64:64-i64:64-i128:128-f80:128-n8:16:32:64-S128"
target triple = "x86_64-pc-linux-gnu"

%struct.Fraig_ManStruct_t_ = type { ptr, ptr, ptr, ptr, ptr, ptr, ptr, ptr, ptr, i32, i32, i32, i32, i32, i32, i32, i32, i32, i32, i32, i32, i64, i32, i32, i32, i32, i32, ptr, ptr, ptr, ptr, ptr, i32, ptr, ptr, ptr, ptr, ptr, ptr, i32, ptr, ptr, ptr, ptr, i32, i32, i32, i32, i32, i32, i32, i32, i32, i32, i32, i32, i32, i32, i32, i32, i32, i32, i32, i64, i64, i64, i64, i64, i64, i64, i64, i64, i64, i64, i64 }
%struct.Fraig_NodeStruct_t_ = type { i32, i32, i32, i32, i32, i32, i32, ptr, ptr, ptr, ptr, ptr, ptr, ptr, ptr, i32, i32, ptr, ptr, ptr, ptr, ptr, ptr, ptr }

; Function Attrs: nounwind uwtable
define internal i32 @Fraig_CheckTfi_rec(ptr noundef %0, ptr noundef %1, ptr noundef %2) #0 {
  %4 = alloca i32, align 4
  %5 = alloca ptr, align 8
  %6 = alloca ptr, align 8
  %7 = alloca ptr, align 8
  store ptr %0, ptr %5, align 8
  store ptr %1, ptr %6, align 8
  store ptr %2, ptr %7, align 8
  %8 = load ptr, ptr %6, align 8
  %9 = icmp eq ptr %8, null
  br i1 %9, label %10, label %11

10:                                               ; preds = %3
  store i32 0, ptr %4, align 4
  br label %75

11:                                               ; preds = %3
  %12 = load ptr, ptr %6, align 8
  %13 = getelementptr inbounds %struct.Fraig_NodeStruct_t_, ptr %12, i32 0, i32 0
  %14 = load i32, ptr %13, align 8
  %15 = load ptr, ptr %7, align 8
  %16 = getelementptr inbounds %struct.Fraig_NodeStruct_t_, ptr %15, i32 0, i32 0
  %17 = load i32, ptr %16, align 8
  %18 = icmp slt i32 %14, %17
  br i1 %18, label %19, label %25

19:                                               ; preds = %11
  %20 = load ptr, ptr %5, align 8
  %21 = getelementptr inbounds %struct.Fraig_ManStruct_t_, ptr %20, i32 0, i32 17
  %22 = load i32, ptr %21, align 8
  %23 = icmp ne i32 %22, 0
  br i1 %23, label %25, label %24

24:                                               ; preds = %19
  store i32 0, ptr %4, align 4
  br label %75

25:                                               ; preds = %19, %11
  %26 = load ptr, ptr %6, align 8
  %27 = load ptr, ptr %7, align 8
  %28 = icmp eq ptr %26, %27
  br i1 %28, label %29, label %30

29:                                               ; preds = %25
  store i32 1, ptr %4, align 4
  br label %75

30:                                               ; preds = %25
  %31 = load ptr, ptr %6, align 8
  %32 = getelementptr inbounds %struct.Fraig_NodeStruct_t_, ptr %31, i32 0, i32 4
  %33 = load i32, ptr %32, align 8
  %34 = load ptr, ptr %5, align 8
  %35 = getelementptr inbounds %struct.Fraig_ManStruct_t_, ptr %34, i32 0, i32 22
  %36 = load i32, ptr %35, align 8
  %37 = icmp eq i32 %33, %36
  br i1 %37, label %38, label %39

38:                                               ; preds = %30
  store i32 0, ptr %4, align 4
  br label %75

39:                                               ; preds = %30
  %40 = load ptr, ptr %5, align 8
  %41 = getelementptr inbounds %struct.Fraig_ManStruct_t_, ptr %40, i32 0, i32 22
  %42 = load i32, ptr %41, align 8
  %43 = load ptr, ptr %6, align 8
  %44 = getelementptr inbounds %struct.Fraig_NodeStruct_t_, ptr %43, i32 0, i32 4
  store i32 %42, ptr %44, align 8
  %45 = load ptr, ptr %5, align 8
  %46 = load ptr, ptr %6, align 8
  %47 = getelementptr inbounds %struct.Fraig_NodeStruct_t_, ptr %46, i32 0, i32 7
  %48 = load ptr, ptr %47, align 8
  %49 = ptrtoint ptr %48 to i64
  %50 = and i64 %49, -2
  %51 = inttoptr i64 %50 to ptr
  %52 = load ptr, ptr %7, align 8
  %53 = call i32 @Fraig_CheckTfi_rec(ptr noundef %45, ptr noundef %51, ptr noundef %52)
  %54 = icmp ne i32 %53, 0
  br i1 %54, label %55, label %56

55:                                               ; preds = %39
  store i32 1, ptr %4, align 4
  br label %75

56:                                               ; preds = %39
  %57 = load ptr, ptr %5, align 8
  %58 = load ptr, ptr %6, align 8
  %59 = getelementptr inbounds %struct.Fraig_NodeStruct_t_, ptr %58, i32 0, i32 8
  %60 = load ptr, ptr %59, align 8
  %61 = ptrtoint ptr %60 to i64
  %62 = and i64 %61, -2
  %63 = inttoptr i64 %62 to ptr
  %64 = load ptr, ptr %7, align 8
  %65 = call i32 @Fraig_CheckTfi_rec(ptr noundef %57, ptr noundef %63, ptr noundef %64)
  %66 = icmp ne i32 %65, 0
  br i1 %66, label %67, label %68

67:                                               ; preds = %56
  store i32 1, ptr %4, align 4
  br label %75

68:                                               ; preds = %56
  %69 = load ptr, ptr %5, align 8
  %70 = load ptr, ptr %6, align 8
  %71 = getelementptr inbounds %struct.Fraig_NodeStruct_t_, ptr %70, i32 0, i32 13
  %72 = load ptr, ptr %71, align 8
  %73 = load ptr, ptr %7, align 8
  %74 = call i32 @Fraig_CheckTfi_rec(ptr noundef %69, ptr noundef %72, ptr noundef %73)
  store i32 %74, ptr %4, align 4
  br label %75

75:                                               ; preds = %68, %67, %55, %38, %29, %24, %10
  %76 = load i32, ptr %4, align 4
  ret i32 %76
}