; Function Attrs: nofree nosync nounwind memory(readwrite, inaccessiblemem: none) uwtable
define internal fastcc range(i32 0, 2) i32 @Fraig_CheckTfi_rec(ptr noundef %0, ptr noundef %1, ptr noundef %2) unnamed_addr #2 {
  %4 = getelementptr inbounds nuw i8, ptr %0, i64 104
  %5 = icmp eq ptr %1, null
  br i1 %5, label %._crit_edge, label %.lr.ph

.lr.ph:                                           ; preds = %3
  %6 = getelementptr inbounds nuw i8, ptr %0, i64 128
  br label %7

7:                                                ; preds = %.lr.ph, %tailrecurse
  %.tr2426 = phi ptr [ %1, %.lr.ph ], [ %35, %tailrecurse ]
  %8 = load i32, ptr %.tr2426, align 8
  %9 = load i32, ptr %2, align 8
  %10 = icmp slt i32 %8, %9
  br i1 %10, label %11, label %13

11:                                               ; preds = %7
  %12 = load i32, ptr %4, align 8
  %.not = icmp eq i32 %12, 0
  br i1 %.not, label %._crit_edge, label %13

13:                                               ; preds = %11, %7
  %14 = icmp eq ptr %.tr2426, %2
  br i1 %14, label %._crit_edge, label %15

15:                                               ; preds = %13
  %16 = getelementptr inbounds nuw i8, ptr %.tr2426, i64 16
  %17 = load i32, ptr %16, align 8
  %18 = load i32, ptr %6, align 8
  %19 = icmp eq i32 %17, %18
  br i1 %19, label %._crit_edge, label %20

20:                                               ; preds = %15
  store i32 %18, ptr %16, align 8
  %21 = getelementptr inbounds nuw i8, ptr %.tr2426, i64 32
  %22 = load ptr, ptr %21, align 8
  %23 = ptrtoint ptr %22 to i64
  %24 = and i64 %23, -2
  %25 = inttoptr i64 %24 to ptr
  %26 = tail call fastcc i32 @Fraig_CheckTfi_rec(ptr noundef nonnull %0, ptr noundef %25, ptr noundef nonnull %2)
  %.not22 = icmp eq i32 %26, 0
  br i1 %.not22, label %27, label %._crit_edge

27:                                               ; preds = %20
  %28 = getelementptr inbounds nuw i8, ptr %.tr2426, i64 40
  %29 = load ptr, ptr %28, align 8
  %30 = ptrtoint ptr %29 to i64
  %31 = and i64 %30, -2
  %32 = inttoptr i64 %31 to ptr
  %33 = tail call fastcc i32 @Fraig_CheckTfi_rec(ptr noundef nonnull %0, ptr noundef %32, ptr noundef nonnull %2)
  %.not23 = icmp eq i32 %33, 0
  br i1 %.not23, label %tailrecurse, label %._crit_edge

tailrecurse:                                      ; preds = %27
  %34 = getelementptr inbounds nuw i8, ptr %.tr2426, i64 80
  %35 = load ptr, ptr %34, align 8
  %36 = icmp eq ptr %35, null
  br i1 %36, label %._crit_edge, label %7

._crit_edge:                                      ; preds = %tailrecurse, %11, %13, %15, %20, %27, %3
  %.0 = phi i32 [ 0, %3 ], [ 1, %27 ], [ 1, %20 ], [ 0, %15 ], [ 1, %13 ], [ 0, %11 ], [ 0, %tailrecurse ]
  ret i32 %.0
}